MPASM 5.65                          MAIN.ASM   2-4-2016  14:56:33         PAGE  1


LOC  OBJECT CODE     LINE SOURCE TEXT
  VALUE

                      00001 ;******************************************************************************;
                      00002 ;        ____    ___  ______    ___  ____       ____  ____  ____    ___  ____  ;
                      00003 ;       |    \  /  _]|      T  /  _]|    \     |    \l    j|    \  /  _]|    \ ;
                      00004 ;       |  o  )/  [_ |      | /  [_ |  D  )    |  o  )|  T |  o  )/  [_ |  D  );
                      00005 ;       |   _/Y    _]l_j  l_jY    _]|    /     |   _/ |  | |   _/Y    _]|    / ;
                      00006 ;       |  |  |   [_   |  |  |   [_ |    \     |  |   |  | |  |  |   [_ |    \ ;
                      00007 ;       |  |  |     T  |  |  |     T|  .  Y    |  |   j  l |  |  |     T|  .  Y;
                      00008 ;       l__j  l_____j  l__j  l_____jl__j\_j    l__j  |____jl__j  l_____jl__j\_j;
                      00009 ;------------------------------------------------------------------------------;
                      00010 ;               AER201 Team 61 'Peter Piper' Pipe Inspector                    ;
                      00011 ;                        Author: Omar Abdeldayem                               ;
                      00012 ;                           Created: 1/12/2016                                 ;
                      00013 ;------------------------------------------------------------------------------;
                      00014 ; DESCRIPTION:                                                                                          
                                                               ;
                      00015 ; It does shit, yo.                                                                                     
                                                               ;
                      00016 ;******************************************************************************;
                      00017 ;******************************************************************************;
                      00018 ;******************************************************************************;
                      00019 
                      00020         List    p=16f877                    ; list directive to define processor
                      00021         #include        <p16f877.inc>       ; processor specific variable definitions
                      00001         LIST
                      00002 
                      00003 ;==========================================================================
                      00004 ; Build date : Dec 08 2015
                      00005 ;  MPASM PIC16F877 processor include
                      00006 ; 
                      00007 ;  (c) Copyright 1999-2015 Microchip Technology, All rights reserved
                      00008 ;==========================================================================
                      00009 
                      00541         LIST
2007   3F72           00022         __CONFIG _CP_OFF & _WDT_OFF & _BODEN_ON & _PWRTE_ON & _HS_OSC & _WRT_ENABLE_ON & _CPD_OFF & _LVP
                            _OFF
                      00023 
                      00024 
                      00025 ;******************************************************************************;
                      00026 ;                               BANK0 RAM                                      ;
                      00027 ;******************************************************************************;
                      00028         CBLOCK      0x70
  00000070            00029         lcd_tmp
  00000071            00030         lcd_d1
  00000072            00031         lcd_d2
  00000073            00032         long_del
  00000074            00033         W_temp
  00000075            00034         Status_Temp
  00000076            00035         m_num_spots
  00000077            00036         count
  00000078            00037         spot_base_loc
                      00038         ENDC
                      00039 
                      00040 ;******************************************************************************;
MPASM 5.65                          MAIN.ASM   2-4-2016  14:56:33         PAGE  2


LOC  OBJECT CODE     LINE SOURCE TEXT
  VALUE

                      00041 ;                               EQUATES                                        ;
                      00042 ;******************************************************************************;
  00000002            00043 RS      EQU             2
  00000003            00044 E       EQU             3
                      00045 
                      00046 ;******************************************************************************;
                      00047 ;                               MACROS                                         ;
                      00048 ;******************************************************************************;
                      00049 WRT_LCD macro           val
                      00050         MOVLW           val
                      00051         CALL            LCD_CMD
                      00052         endm
                      00053 
                      00054 WRT_MEM_LCD macro               val
                      00055         MOVFW           val
                      00056         CALL            LCD_CMD
                      00057         endm
                      00058 
                      00059 LCD_DLY macro                           ;Delay ~160us
                      00060         MOVLW           0xFF
                      00061         MOVWF           lcd_d1
                      00062         DECFSZ          lcd_d1, f
                      00063         GOTO            $-1
                      00064         endm
                      00065 
                      00066 ;******************************************************************************;
                      00067 ;                          VECTOR TABLE (?)                                    ;
                      00068 ;******************************************************************************;
                      00069         ORG             0x0000          ; RESET vector must always be at 0x00
0000   2???           00070         GOTO            INIT            ; Just jump to the main code section.
                      00071         ORG             0x0004
0004   2???           00072         GOTO            INT_HANDLER
                      00073 
                      00074 ;******************************************************************************;
                      00075 ;                         ROBOT INITIALIZATION                                 ;
                      00076 ;******************************************************************************;
0005                  00077 INIT
0005   1683           00078         BSF             STATUS, RP0     ;Select bank 1
                      00079 
                      00080         ; PIN MAPPINGS AND INITIALIZATION
0006   3018           00081         MOVLW           b'00011000'
Message[302]: Register in operand not in bank 0.  Ensure that bank bits are correct.
0007   0085           00082         MOVWF           TRISA
0008   30F3           00083         MOVLW           b'11110011'     ; Set required keypad inputs
Message[302]: Register in operand not in bank 0.  Ensure that bank bits are correct.
0009   0086           00084         MOVWF           TRISB
000A   3079           00085         MOVLW           b'01111001'
Message[302]: Register in operand not in bank 0.  Ensure that bank bits are correct.
000B   0087           00086         MOVWF           TRISC
Message[302]: Register in operand not in bank 0.  Ensure that bank bits are correct.
000C   0188           00087         CLRF            TRISD           ; All port D is output
000D   3007           00088         MOVLW           b'00000111'
Message[302]: Register in operand not in bank 0.  Ensure that bank bits are correct.
MPASM 5.65                          MAIN.ASM   2-4-2016  14:56:33         PAGE  3


LOC  OBJECT CODE     LINE SOURCE TEXT
  VALUE

000E   0089           00089         MOVWF           TRISE
                      00090 
000F   309F           00091         MOVLW           b'10011111'     ; PWM pulsing period
Message[302]: Register in operand not in bank 0.  Ensure that bank bits are correct.
0010   0092           00092         MOVWF           PR2
                      00093         
0011   1283           00094         BCF             STATUS, RP0     ; select bank 0
                      00095         
0012   0195           00096         CLRF            CCPR1L          ; Setup PWM pins
0013   300C           00097         MOVLW           B'00001100'
0014   0097           00098         MOVWF           CCP1CON
                      00099         
0015   158B           00100         BSF             INTCON, RBIE    ; Setup and enable interrupts
0016   160B           00101         BSF             INTCON, INTE
0017   178B           00102         BSF             INTCON, GIE
                      00103 
0018   3002           00104         MOVLW           B'00000010'     ; Initialize and start timer 2
0019   0092           00105         MOVWF           T2CON
001A   0191           00106         CLRF            TMR2
001B   1512           00107         BSF             T2CON, TMR2ON
                      00108         
001C   0185           00109         CLRF            PORTA
001D   0187           00110         CLRF            PORTC
001E   2???           00111         CALL            LCD_INIT        ; Initialize the LCD (code in lcd.asm; imported by lcd.inc)
001F   2???           00112         CALL            START_MSG
                      00113         ;BSF            PORTC, 0
                      00114 
                      00115 ;******************************************************************************;
                      00116 ;                        ROBOT START AND STANDBY                               ;
                      00117 ;******************************************************************************;
0020                  00118 START_STDBY
0020   1C86           00119         BTFSS       PORTB, 1            ; Wait until data is available from the keypad
0021   2???           00120         GOTO        START_STDBY
                      00121 
0022   0E06           00122         SWAPF       PORTB, W            ; Read PortB<7:4> into W<3:0>
0023   390F           00123         ANDLW       0x0F
0024   2???           00124         CALL        CLR_LCD
                      00125 
0025   1886           00126         BTFSC       PORTB,1             ; Wait until key is released
0026   2???           00127         GOTO        $-1
                      00128 
0027   1685           00129         BSF         PORTA, 5
0028   2???           00130         CALL        CLR_LCD
0029   1285           00131         BCF         PORTA, 5
                      00132         
002A   2???           00133         CALL        STOP_STDBY_MSG
002B   2???           00134         GOTO        STOP_STDBY
                      00135         ; GOTO      CALIBRATE
                      00136 
                      00137 ;******************************************************************************;
                      00138 ;                           SENSOR CALIBRATION                                 ;
                      00139 ;******************************************************************************;
002C                  00140 CALIBRATE
MPASM 5.65                          MAIN.ASM   2-4-2016  14:56:33         PAGE  4


LOC  OBJECT CODE     LINE SOURCE TEXT
  VALUE

Message[305]: Using default destination of 1 (file).
002C   0F95           00141         INCFSZ      CCPR1L
002D   2???           00142         GOTO        CALIBRATE
002E   2???           00143         GOTO        SCAN
                      00144 ;******************************************************************************;
                      00145 ;                         PIPE SCAN SUPERLOOP                                  ;
                      00146 ;******************************************************************************;
002F                  00147 SCAN
Message[305]: Using default destination of 1 (file).
002F   0395           00148         DECF        CCPR1L
Message[305]: Using default destination of 1 (file).
0030   0B95           00149         DECFSZ      CCPR1L                              
0031   2???           00150         GOTO        SCAN
0032   2???           00151         GOTO        CALIBRATE
                      00152 
                      00153 ;******************************************************************************;
                      00154 ;                          INTERRUPT HANDLER                                   ;
                      00155 ;******************************************************************************;
0033                  00156 INT_HANDLER
0033   00F4           00157         MOVWF       W_temp
0034   0E03           00158         swapf       STATUS, W
0035   00F5           00159         MOVWF       Status_Temp
                      00160         
                      00161 ;       BCF         PORTC, 0
                      00162         
0036   100B           00163         BCF         INTCON, RBIF
0037   108B           00164         BCF         INTCON, INTF    ; Clear the interrupt flag
0038   0E75           00165         SWAPF       Status_Temp, W
0039   0083           00166         MOVWF       STATUS
003A   0EF4           00167         SWAPF       W_temp, F
003B   0E74           00168         SWAPF       W_temp, W
003C   0009           00169         RETFIE
                      00170 
                      00171 ;******************************************************************************;
                      00172 ;                       PIN DETECTED SERVICE ROUTINE                           ;
                      00173 ;******************************************************************************;
003D                  00174 PIN_ISR
003D   2???           00175         GOTO        PIN_ISR
                      00176 
                      00177 ;******************************************************************************;
                      00178 ;                   ROBOT MISALIGNMENT SERVICE ROUTINE                         ;
                      00179 ;******************************************************************************;
003E                  00180 MISALIGN_ISR
                      00181 
                      00182 ;******************************************************************************;
                      00183 ;                       END-OF-PIPE SERVICE ROUTINE                            ;
                      00184 ;******************************************************************************;
003E                  00185 END_ISR
                      00186 
                      00187 ;******************************************************************************;
                      00188 ;                             STOP STANDBY                                     ;
                      00189 ;******************************************************************************;
003E                  00190 STOP_STDBY
MPASM 5.65                          MAIN.ASM   2-4-2016  14:56:33         PAGE  5


LOC  OBJECT CODE     LINE SOURCE TEXT
  VALUE

003E   1C86           00191         BTFSS       PORTB, 1            ; Wait until data is available from the keypad
003F   2???           00192         GOTO        STOP_STDBY
                      00193 
0040   0E06           00194         SWAPF       PORTB, W            ; Read PortB<7:4> into W<3:0>
0041   390F           00195         ANDLW       0x0F
0042   2???           00196         CALL        CLR_LCD
0043   2???           00197         GOTO        STOP_DATA
                      00198 
                      00199 ;******************************************************************************;
                      00200 ;                              DISPLAY DATA                                    ;
                      00201 ;******************************************************************************;
0044                  00202 STOP_DATA
0044   3004           00203         MOVLW       b'00000100'
0045   00F7           00204         MOVWF       count
                      00205 ;       CLRF        count
0046   3034           00206         MOVLW       "4"
0047   00F6           00207         MOVWF       m_num_spots
                      00208         
0048   2???           00209         CALL        WRT_DATA
0049   2???           00210         CALL        LONG_DLY
004A   2???           00211         CALL        LONG_DLY
004B   2???           00212         CALL        LONG_DLY
004C   2???           00213         CALL        LONG_DLY
004D   2???           00214         CALL        LONG_DLY
004E   2???           00215         CALL        LONG_DLY
004F   2???           00216         CALL        LONG_DLY
0050   2???           00217         CALL        LONG_DLY
0051   2???           00218         CALL        LONG_DLY
0052   2???           00219         CALL        LONG_DLY
0053   2???           00220         CALL        LONG_DLY
0054   2???           00221         CALL        LONG_DLY
                      00222         
0055   2???           00223         CALL        CLR_LCD
                      00224         
0056   3078           00225         MOVLW       spot_base_loc
0057   0084           00226         MOVWF       FSR
                      00227         
0058   3031           00228         MOVLW       "1"
0059   00F8           00229         MOVWF       spot_base_loc
                      00230         
005A   3033           00231         MOVLW       "3"
005B   00F9           00232         MOVWF       spot_base_loc + 1
                      00233         
005C   3036           00234         MOVLW       "6"
005D   00FA           00235         MOVWF       spot_base_loc + 2
                      00236         
005E   3038           00237         MOVLW       "8"
005F   00FB           00238         MOVWF       spot_base_loc + 3
                      00239         
                      00240         
0060                  00241 DATA_LOOP       
                      00242         WRT_LCD     "S"
0060   3053               M         MOVLW           "S"
MPASM 5.65                          MAIN.ASM   2-4-2016  14:56:33         PAGE  6


LOC  OBJECT CODE     LINE SOURCE TEXT
  VALUE

0061   2???               M         CALL            LCD_CMD
                      00243         WRT_LCD     "P"
0062   3050               M         MOVLW           "P"
0063   2???               M         CALL            LCD_CMD
                      00244         WRT_LCD     "O"
0064   304F               M         MOVLW           "O"
0065   2???               M         CALL            LCD_CMD
                      00245         WRT_LCD     "T"
0066   3054               M         MOVLW           "T"
0067   2???               M         CALL            LCD_CMD
                      00246         WRT_LCD     ":"
0068   303A               M         MOVLW           ":"
0069   2???               M         CALL            LCD_CMD
                      00247         WRT_LCD     " "
006A   3020               M         MOVLW           " "
006B   2???               M         CALL            LCD_CMD
                      00248         WRT_MEM_LCD INDF
006C   0800               M         MOVFW           INDF
006D   2???               M         CALL            LCD_CMD
                      00249         
006E   2???           00250         CALL        LONG_DLY
006F   2???           00251         CALL        LONG_DLY
0070   2???           00252         CALL        LONG_DLY
0071   2???           00253         CALL        LONG_DLY
0072   2???           00254         CALL        LONG_DLY
0073   2???           00255         CALL        LONG_DLY
0074   2???           00256         CALL        LONG_DLY
0075   2???           00257         CALL        LONG_DLY
0076   2???           00258         CALL        LONG_DLY
0077   2???           00259         CALL        LONG_DLY
0078   2???           00260         CALL        LONG_DLY
0079   2???           00261         CALL        LONG_DLY
007A   2???           00262         CALL        CLR_LCD
007B   0A84           00263         INCF        FSR, F
                      00264 
007C   0BF7           00265         DECFSZ      count, F
007D   2???           00266         GOTO        DATA_LOOP
                      00267         
                      00268         WRT_LCD     "E"
007E   3045               M         MOVLW           "E"
007F   2???               M         CALL            LCD_CMD
                      00269         WRT_LCD     "N"
0080   304E               M         MOVLW           "N"
0081   2???               M         CALL            LCD_CMD
                      00270         WRT_LCD     "D"
0082   3044               M         MOVLW           "D"
0083   2???               M         CALL            LCD_CMD
                      00271 
0084   2???           00272         GOTO        FINISH
                      00273         
                      00274 ;******************************************************************************;
                      00275 ;                           LCD INITIALIZATION                                 ;
                      00276 ;******************************************************************************;
MPASM 5.65                          MAIN.ASM   2-4-2016  14:56:33         PAGE  7


LOC  OBJECT CODE     LINE SOURCE TEXT
  VALUE

0085                  00277 LCD_INIT
0085   1283           00278         BCF         STATUS, RP0
0086   1588           00279         BSF         PORTD, E        ;E default high
                      00280 
                      00281         ;Wait for LCD POR to finish (~15ms)
0087   2???           00282         CALL        LCD_LONG_DELAY
0088   2???           00283         CALL        LCD_LONG_DELAY
0089   2???           00284         CALL        LCD_LONG_DELAY
                      00285 
                      00286         ;Ensure 8-bit mode first (no way to immediately guarantee 4-bit mode)
                      00287         ; -> Send b'0011' 3 times
008A   1108           00288         BCF         PORTD,RS        ;Instruction mode
008B   3030           00289         MOVLW       B'00110000'
008C   2???           00290         CALL        MovMSB
008D   2???           00291         CALL        LCD_LONG_DELAY
008E   2???           00292         CALL        LCD_LONG_DELAY
008F   2???           00293         CALL        ClkLCD          ;Finish last 4-bit send (if reset occurred in middle of a send)
0090   2???           00294         CALL        LCD_LONG_DELAY  ;->max instruction time ~= 5ms
0091   2???           00295         CALL        ClkLCD          ;Assuming 4-bit mode, set 8-bit mode
0092   2???           00296         CALL        ClkLCD          ;(note: if it's in 8-bit mode already, it will stay in 8-bit mode)
                      00297 
                      00298     ;Now that we know for sure it's in 8-bit mode, set 4-bit mode.
0093   3020           00299         MOVLW       B'00100000'
0094   2???           00300         CALL        MovMSB
0095   2???           00301         CALL        LCD_LONG_DELAY
0096   2???           00302         CALL        LCD_LONG_DELAY
0097   2???           00303         CALL        ClkLCD
                      00304 
                      00305         ;Give LCD init instructions
                      00306         WRT_LCD     B'00101000'     ; 4 bits, 2 lines,5X8 dot
0098   3028               M         MOVLW           B'00101000'
0099   2???               M         CALL            LCD_CMD
009A   2???           00307         CALL        LCD_LONG_DELAY
009B   2???           00308         CALL        LCD_LONG_DELAY
                      00309         
                      00310         WRT_LCD     B'00001111'     ; display on,cursor,blink
009C   300F               M         MOVLW           B'00001111'
009D   2???               M         CALL            LCD_CMD
009E   2???           00311         CALL        LCD_LONG_DELAY
009F   2???           00312         CALL        LCD_LONG_DELAY
                      00313         WRT_LCD     B'00000110'     ; Increment,no shift
00A0   3006               M         MOVLW           B'00000110'
00A1   2???               M         CALL            LCD_CMD
00A2   2???           00314         CALL        LCD_LONG_DELAY
00A3   2???           00315         CALL        LCD_LONG_DELAY
                      00316         ;Ready to display characters
00A4   2???           00317         CALL        CLR_LCD
00A5   1508           00318         BSF         PORTD,RS        ; Character mode
00A6   0008           00319         RETURN
                      00320 
                      00321 ;******************************************************************************;
                      00322 ;                                  HELLO                                       ;
                      00323 ;******************************************************************************;
MPASM 5.65                          MAIN.ASM   2-4-2016  14:56:33         PAGE  8


LOC  OBJECT CODE     LINE SOURCE TEXT
  VALUE

00A7                  00324 START_MSG
                      00325         WRT_LCD     "H"
00A7   3048               M         MOVLW           "H"
00A8   2???               M         CALL            LCD_CMD
                      00326         WRT_LCD     "I"
00A9   3049               M         MOVLW           "I"
00AA   2???               M         CALL            LCD_CMD
                      00327         WRT_LCD     "T"
00AB   3054               M         MOVLW           "T"
00AC   2???               M         CALL            LCD_CMD
                      00328         WRT_LCD     " "
00AD   3020               M         MOVLW           " "
00AE   2???               M         CALL            LCD_CMD
                      00329         WRT_LCD     "*"
00AF   302A               M         MOVLW           "*"
00B0   2???               M         CALL            LCD_CMD
                      00330         WRT_LCD     " "
00B1   3020               M         MOVLW           " "
00B2   2???               M         CALL            LCD_CMD
                      00331         WRT_LCD     "T"
00B3   3054               M         MOVLW           "T"
00B4   2???               M         CALL            LCD_CMD
                      00332         WRT_LCD     "O"
00B5   304F               M         MOVLW           "O"
00B6   2???               M         CALL            LCD_CMD
                      00333         WRT_LCD     " "
00B7   3020               M         MOVLW           " "
00B8   2???               M         CALL            LCD_CMD
                      00334         WRT_LCD     "S"
00B9   3053               M         MOVLW           "S"
00BA   2???               M         CALL            LCD_CMD
                      00335         WRT_LCD     "T"
00BB   3054               M         MOVLW           "T"
00BC   2???               M         CALL            LCD_CMD
                      00336         WRT_LCD     "A"
00BD   3041               M         MOVLW           "A"
00BE   2???               M         CALL            LCD_CMD
                      00337         WRT_LCD     "R"
00BF   3052               M         MOVLW           "R"
00C0   2???               M         CALL            LCD_CMD
                      00338         WRT_LCD     "T"
00C1   3054               M         MOVLW           "T"
00C2   2???               M         CALL            LCD_CMD
00C3   0008           00339         RETURN
                      00340         
                      00341 ;******************************************************************************;
                      00342 ;                                GOODBYE                                       ;
                      00343 ;******************************************************************************;
00C4                  00344 STOP_STDBY_MSG
                      00345         WRT_LCD     "H"
00C4   3048               M         MOVLW           "H"
00C5   2???               M         CALL            LCD_CMD
                      00346         WRT_LCD     "I"
MPASM 5.65                          MAIN.ASM   2-4-2016  14:56:33         PAGE  9


LOC  OBJECT CODE     LINE SOURCE TEXT
  VALUE

00C6   3049               M         MOVLW           "I"
00C7   2???               M         CALL            LCD_CMD
                      00347         WRT_LCD     "T"
00C8   3054               M         MOVLW           "T"
00C9   2???               M         CALL            LCD_CMD
                      00348         WRT_LCD     " "
00CA   3020               M         MOVLW           " "
00CB   2???               M         CALL            LCD_CMD
                      00349         WRT_LCD     "*"
00CC   302A               M         MOVLW           "*"
00CD   2???               M         CALL            LCD_CMD
                      00350         WRT_LCD     " "
00CE   3020               M         MOVLW           " "
00CF   2???               M         CALL            LCD_CMD
                      00351         WRT_LCD     "F"
00D0   3046               M         MOVLW           "F"
00D1   2???               M         CALL            LCD_CMD
                      00352         WRT_LCD     "O"
00D2   304F               M         MOVLW           "O"
00D3   2???               M         CALL            LCD_CMD
                      00353         WRT_LCD     "R"
00D4   3052               M         MOVLW           "R"
00D5   2???               M         CALL            LCD_CMD
                      00354         WRT_LCD     " "
00D6   3020               M         MOVLW           " "
00D7   2???               M         CALL            LCD_CMD
                      00355         WRT_LCD     "D"
00D8   3044               M         MOVLW           "D"
00D9   2???               M         CALL            LCD_CMD
                      00356         WRT_LCD     "A"
00DA   3041               M         MOVLW           "A"
00DB   2???               M         CALL            LCD_CMD
                      00357         WRT_LCD     "T"
00DC   3054               M         MOVLW           "T"
00DD   2???               M         CALL            LCD_CMD
                      00358         WRT_LCD     "A"
00DE   3041               M         MOVLW           "A"
00DF   2???               M         CALL            LCD_CMD
00E0   0008           00359         RETURN
                      00360          
                      00361 ;******************************************************************************;
                      00362 ;                                 DATA                                         ;
                      00363 ;******************************************************************************;
00E1                  00364 WRT_DATA        
                      00365         WRT_LCD     "N"
00E1   304E               M         MOVLW           "N"
00E2   2???               M         CALL            LCD_CMD
                      00366         WRT_LCD     "U"
00E3   3055               M         MOVLW           "U"
00E4   2???               M         CALL            LCD_CMD
                      00367         WRT_LCD     "M"
00E5   304D               M         MOVLW           "M"
00E6   2???               M         CALL            LCD_CMD
MPASM 5.65                          MAIN.ASM   2-4-2016  14:56:33         PAGE 10


LOC  OBJECT CODE     LINE SOURCE TEXT
  VALUE

                      00368         WRT_LCD     " "
00E7   3020               M         MOVLW           " "
00E8   2???               M         CALL            LCD_CMD
                      00369         WRT_LCD     "S"
00E9   3053               M         MOVLW           "S"
00EA   2???               M         CALL            LCD_CMD
                      00370         WRT_LCD     "P"
00EB   3050               M         MOVLW           "P"
00EC   2???               M         CALL            LCD_CMD
                      00371         WRT_LCD     "O"
00ED   304F               M         MOVLW           "O"
00EE   2???               M         CALL            LCD_CMD
                      00372         WRT_LCD     "T"
00EF   3054               M         MOVLW           "T"
00F0   2???               M         CALL            LCD_CMD
                      00373         WRT_LCD     "S"
00F1   3053               M         MOVLW           "S"
00F2   2???               M         CALL            LCD_CMD
                      00374         WRT_LCD     ":"
00F3   303A               M         MOVLW           ":"
00F4   2???               M         CALL            LCD_CMD
                      00375         WRT_LCD     " "
00F5   3020               M         MOVLW           " "
00F6   2???               M         CALL            LCD_CMD
                      00376         WRT_MEM_LCD m_num_spots
00F7   0876               M         MOVFW           m_num_spots
00F8   2???               M         CALL            LCD_CMD
                      00377         WRT_LCD     " "
00F9   3020               M         MOVLW           " "
00FA   2???               M         CALL            LCD_CMD
                      00378         WRT_LCD     " "
00FB   3020               M         MOVLW           " "
00FC   2???               M         CALL            LCD_CMD
00FD   0008           00379         RETURN
                      00380 ;******************************************************************************;                
                      00381 ;******************************************************************************;
                      00382 ;******************************************************************************;
                      00383         ;WrtLCD: Clock MSB and LSB of W to PORTD<7:4> in two cycles
00FE                  00384 LCD_CMD
00FE   00F0           00385         MOVWF       lcd_tmp         ; store original value
00FF   2???           00386         CALL        MovMSB          ; move MSB to PORTD
0100   2???           00387         CALL        ClkLCD
0101   0E70           00388         SWAPF       lcd_tmp,w       ; Swap LSB of value into MSB of W
0102   2???           00389         CALL        MovMSB          ; move to PORTD
0103   2???           00390         CALL        ClkLCD
0104   0008           00391         RETURN
                      00392 
0105                  00393 SHIFT_LCD
0105   1108           00394         BCF         PORTD, RS
                      00395         WRT_LCD     B'00011000'
0106   3018               M         MOVLW           B'00011000'
0107   2???               M         CALL            LCD_CMD
0108   2???           00396         CALL        LONG_DLY
MPASM 5.65                          MAIN.ASM   2-4-2016  14:56:33         PAGE 11


LOC  OBJECT CODE     LINE SOURCE TEXT
  VALUE

0109   2???           00397         CALL        LONG_DLY
010A   2???           00398         CALL        LONG_DLY
010B   2???           00399         CALL        LONG_DLY
010C   1508           00400         BSF         PORTD, RS
010D   0008           00401         RETURN
                      00402         
                      00403     ;ClrLCD: Clear the LCD display
010E                  00404 CLR_LCD
010E   1108           00405         BCF         PORTD, RS       ; Instruction mode
                      00406         WRT_LCD     b'00000001'
010F   3001               M         MOVLW           b'00000001'
0110   2???               M         CALL            LCD_CMD
0111   2???           00407         CALL        LCD_LONG_DELAY
0112   1508           00408         BSF         PORTD, RS
0113   0008           00409         RETURN
                      00410 
                      00411     ;ClkLCD: Pulse the E line low
0114                  00412 ClkLCD
                      00413         LCD_DLY
0114   30FF               M         MOVLW           0xFF
0115   00F1               M         MOVWF           lcd_d1
0116   0BF1               M         DECFSZ          lcd_d1, f
0117   2???               M         GOTO            $-1
0118   1188           00414         BCF         PORTD,E
                      00415         LCD_DLY             ; __    __
0119   30FF               M         MOVLW           0xFF
011A   00F1               M         MOVWF           lcd_d1
011B   0BF1               M         DECFSZ          lcd_d1, f
011C   2???               M         GOTO            $-1
011D   1588           00416         BSF         PORTD,E ;   |__|
011E   0008           00417         RETURN
                      00418 
                      00419     ;****************************************
                      00420 
                      00421     ;MovMSB: Move MSB of W to PORTD, without disturbing LSB
011F                  00422 MovMSB
011F   39F0           00423         ANDLW       0xF0
0120   0488           00424         IORWF       PORTD,f
0121   380F           00425         IORLW       0x0F
0122   0588           00426         ANDWF       PORTD,f
0123   0008           00427         RETURN
                      00428 
0124                  00429 LONG_DLY
Warning[202]: Argument out of range.  Least significant bits used.
0124   30FF           00430         MOVLW       0xFFFF
0125   00F3           00431         MOVWF       long_del
0126                  00432 LD_LOOP 
                      00433         LCD_DLY
0126   30FF               M         MOVLW           0xFF
0127   00F1               M         MOVWF           lcd_d1
0128   0BF1               M         DECFSZ          lcd_d1, f
0129   2???               M         GOTO            $-1
012A   0BF3           00434         DECFSZ      long_del, f
MPASM 5.65                          MAIN.ASM   2-4-2016  14:56:33         PAGE 12


LOC  OBJECT CODE     LINE SOURCE TEXT
  VALUE

012B   2???           00435         GOTO        LD_LOOP
012C   0008           00436         RETURN
                      00437         
                      00438     ;Delay: ~5ms
012D                  00439 LCD_LONG_DELAY
012D   3014           00440         MOVLW       d'20'
012E   00F2           00441         MOVWF       lcd_d2
012F                  00442 LLD_LOOP
                      00443         LCD_DLY
012F   30FF               M         MOVLW           0xFF
0130   00F1               M         MOVWF           lcd_d1
0131   0BF1               M         DECFSZ          lcd_d1, f
0132   2???               M         GOTO            $-1
0133   0BF2           00444         DECFSZ      lcd_d2, f
0134   2???           00445         GOTO        LLD_LOOP
0135   0008           00446         RETURN
                      00447         
0136                  00448 FINISH  
0136   2???           00449         GOTO    FINISH
                      00450         
3F72                  00451         END
MPASM 5.65                          MAIN.ASM   2-4-2016  14:56:33         PAGE 13


SYMBOL TABLE
  LABEL                             VALUE 

ACKDT                             00000005
ACKEN                             00000004
ACKSTAT                           00000006
ADCON0                            0000001F
ADCON1                            0000009F
ADCS0                             00000006
ADCS1                             00000007
ADDEN                             00000003
ADFM                              00000007
ADIE                              00000006
ADIF                              00000006
ADON                              00000000
ADRESH                            0000001E
ADRESL                            0000009E
BCLIE                             00000003
BCLIF                             00000003
BF                                00000000
BRGH                              00000002
C                                 00000000
CALIBRATE                         0000002C
CCP1CON                           00000017
CCP1IE                            00000002
CCP1IF                            00000002
CCP1M0                            00000000
CCP1M1                            00000001
CCP1M2                            00000002
CCP1M3                            00000003
CCP1X                             00000005
CCP1Y                             00000004
CCP2CON                           0000001D
CCP2IE                            00000000
CCP2IF                            00000000
CCP2M0                            00000000
CCP2M1                            00000001
CCP2M2                            00000002
CCP2M3                            00000003
CCP2X                             00000005
CCP2Y                             00000004
CCPR1                             00000015
CCPR1H                            00000016
CCPR1L                            00000015
CCPR2                             0000001B
CCPR2H                            0000001C
CCPR2L                            0000001B
CHS0                              00000003
CHS1                              00000004
CHS2                              00000005
CKE                               00000006
CKP                               00000004
CLR_LCD                           0000010E
CREN                              00000004
CSRC                              00000007
ClkLCD                            00000114
MPASM 5.65                          MAIN.ASM   2-4-2016  14:56:33         PAGE 14


SYMBOL TABLE
  LABEL                             VALUE 

D                                 00000005
DATA_ADDRESS                      00000005
DATA_LOOP                         00000060
DC                                00000001
D_A                               00000005
D_NOT_A                           00000005
E                                 00000003
EEADR                             0000010D
EEADRH                            0000010F
EECON1                            0000018C
EECON2                            0000018D
EEDATA                            0000010C
EEDATH                            0000010E
EEIE                              00000004
EEIF                              00000004
EEPGD                             00000007
END_ISR                           0000003E
F                                 00000001
FERR                              00000002
FINISH                            00000136
FSR                               00000004
GCEN                              00000007
GIE                               00000007
GO                                00000002
GO_DONE                           00000002
GO_NOT_DONE                       00000002
I2C_DATA                          00000005
I2C_READ                          00000002
I2C_START                         00000003
I2C_STOP                          00000004
IBF                               00000007
IBOV                              00000005
INDF                              00000000
INIT                              00000005
INTCON                            0000000B
INTE                              00000004
INTEDG                            00000006
INTF                              00000001
INT_HANDLER                       00000033
IRP                               00000007
LCD_CMD                           000000FE
LCD_DLY                           
LCD_INIT                          00000085
LCD_LONG_DELAY                    0000012D
LD_LOOP                           00000126
LLD_LOOP                          0000012F
LONG_DLY                          00000124
MISALIGN_ISR                      0000003E
MovMSB                            0000011F
NOT_A                             00000005
NOT_ADDRESS                       00000005
NOT_BO                            00000000
NOT_BOR                           00000000
MPASM 5.65                          MAIN.ASM   2-4-2016  14:56:33         PAGE 15


SYMBOL TABLE
  LABEL                             VALUE 

NOT_DONE                          00000002
NOT_PD                            00000003
NOT_POR                           00000001
NOT_RBPU                          00000007
NOT_RC8                           00000006
NOT_T1SYNC                        00000002
NOT_TO                            00000004
NOT_TX8                           00000006
NOT_W                             00000002
NOT_WRITE                         00000002
OBF                               00000006
OERR                              00000001
OPTION_REG                        00000081
P                                 00000004
PCFG0                             00000000
PCFG1                             00000001
PCFG2                             00000002
PCFG3                             00000003
PCL                               00000002
PCLATH                            0000000A
PCON                              0000008E
PEIE                              00000006
PEN                               00000002
PIE1                              0000008C
PIE2                              0000008D
PIN_ISR                           0000003D
PIR1                              0000000C
PIR2                              0000000D
PORTA                             00000005
PORTB                             00000006
PORTC                             00000007
PORTD                             00000008
PORTE                             00000009
PR2                               00000092
PS0                               00000000
PS1                               00000001
PS2                               00000002
PSA                               00000003
PSPIE                             00000007
PSPIF                             00000007
PSPMODE                           00000004
R                                 00000002
RA0                               00000000
RA1                               00000001
RA2                               00000002
RA3                               00000003
RA4                               00000004
RA5                               00000005
RB0                               00000000
RB1                               00000001
RB2                               00000002
RB3                               00000003
RB4                               00000004
MPASM 5.65                          MAIN.ASM   2-4-2016  14:56:33         PAGE 16


SYMBOL TABLE
  LABEL                             VALUE 

RB5                               00000005
RB6                               00000006
RB7                               00000007
RBIE                              00000003
RBIF                              00000000
RC0                               00000000
RC1                               00000001
RC2                               00000002
RC3                               00000003
RC4                               00000004
RC5                               00000005
RC6                               00000006
RC7                               00000007
RC8_9                             00000006
RC9                               00000006
RCD8                              00000000
RCEN                              00000003
RCIE                              00000005
RCIF                              00000005
RCREG                             0000001A
RCSTA                             00000018
RD                                00000000
RD0                               00000000
RD1                               00000001
RD2                               00000002
RD3                               00000003
RD4                               00000004
RD5                               00000005
RD6                               00000006
RD7                               00000007
RE0                               00000000
RE1                               00000001
RE2                               00000002
READ_WRITE                        00000002
RP0                               00000005
RP1                               00000006
RS                                00000002
RSEN                              00000001
RX9                               00000006
RX9D                              00000000
R_NOT_W                           00000002
R_W                               00000002
S                                 00000003
SCAN                              0000002F
SEN                               00000000
SHIFT_LCD                         00000105
SMP                               00000007
SPBRG                             00000099
SPEN                              00000007
SREN                              00000005
SSPADD                            00000093
SSPBUF                            00000013
SSPCON                            00000014
MPASM 5.65                          MAIN.ASM   2-4-2016  14:56:33         PAGE 17


SYMBOL TABLE
  LABEL                             VALUE 

SSPCON2                           00000091
SSPEN                             00000005
SSPIE                             00000003
SSPIF                             00000003
SSPM0                             00000000
SSPM1                             00000001
SSPM2                             00000002
SSPM3                             00000003
SSPOV                             00000006
SSPSTAT                           00000094
START_MSG                         000000A7
START_STDBY                       00000020
STATUS                            00000003
STOP_DATA                         00000044
STOP_STDBY                        0000003E
STOP_STDBY_MSG                    000000C4
SYNC                              00000004
Status_Temp                       00000075
T0CS                              00000005
T0IE                              00000005
T0IF                              00000002
T0SE                              00000004
T1CKPS0                           00000004
T1CKPS1                           00000005
T1CON                             00000010
T1INSYNC                          00000002
T1OSCEN                           00000003
T1SYNC                            00000002
T2CKPS0                           00000000
T2CKPS1                           00000001
T2CON                             00000012
TMR0                              00000001
TMR0IE                            00000005
TMR0IF                            00000002
TMR1                              0000000E
TMR1CS                            00000001
TMR1H                             0000000F
TMR1IE                            00000000
TMR1IF                            00000000
TMR1L                             0000000E
TMR1ON                            00000000
TMR2                              00000011
TMR2IE                            00000001
TMR2IF                            00000001
TMR2ON                            00000002
TOUTPS0                           00000003
TOUTPS1                           00000004
TOUTPS2                           00000005
TOUTPS3                           00000006
TRISA                             00000085
TRISA0                            00000000
TRISA1                            00000001
TRISA2                            00000002
MPASM 5.65                          MAIN.ASM   2-4-2016  14:56:33         PAGE 18


SYMBOL TABLE
  LABEL                             VALUE 

TRISA3                            00000003
TRISA4                            00000004
TRISA5                            00000005
TRISB                             00000086
TRISB0                            00000000
TRISB1                            00000001
TRISB2                            00000002
TRISB3                            00000003
TRISB4                            00000004
TRISB5                            00000005
TRISB6                            00000006
TRISB7                            00000007
TRISC                             00000087
TRISC0                            00000000
TRISC1                            00000001
TRISC2                            00000002
TRISC3                            00000003
TRISC4                            00000004
TRISC5                            00000005
TRISC6                            00000006
TRISC7                            00000007
TRISD                             00000088
TRISD0                            00000000
TRISD1                            00000001
TRISD2                            00000002
TRISD3                            00000003
TRISD4                            00000004
TRISD5                            00000005
TRISD6                            00000006
TRISD7                            00000007
TRISE                             00000089
TRISE0                            00000000
TRISE1                            00000001
TRISE2                            00000002
TRMT                              00000001
TX8_9                             00000006
TX9                               00000006
TX9D                              00000000
TXD8                              00000000
TXEN                              00000005
TXIE                              00000004
TXIF                              00000004
TXREG                             00000019
TXSTA                             00000098
UA                                00000001
W                                 00000000
WCOL                              00000007
WR                                00000001
WREN                              00000002
WRERR                             00000003
WRT_DATA                          000000E1
WRT_LCD                           
WRT_MEM_LCD                       
MPASM 5.65                          MAIN.ASM   2-4-2016  14:56:33         PAGE 19


SYMBOL TABLE
  LABEL                             VALUE 

W_temp                            00000074
Z                                 00000002
_.org_1_0026                      00000026
_.org_1_0117                      00000117
_.org_1_011C                      0000011C
_.org_1_0129                      00000129
_.org_1_0132                      00000132
_BODEN_OFF                        00003FBF
_BODEN_ON                         00003FFF
_BOREN_OFF                        00003FBF
_BOREN_ON                         00003FFF
_CONFIG                           00002007
_CPD_OFF                          00003FFF
_CPD_ON                           00003EFF
_CP_ALL                           00000FCF
_CP_HALF                          00001FDF
_CP_OFF                           00003FFF
_CP_UPPER_256                     00002FEF
_DEBUG_OFF                        00003FFF
_DEBUG_ON                         000037FF
_DEVID1                           00002006
_FOSC_EXTRC                       00003FFF
_FOSC_HS                          00003FFE
_FOSC_LP                          00003FFC
_FOSC_XT                          00003FFD
_HS_OSC                           00003FFE
_IDLOC0                           00002000
_IDLOC1                           00002001
_IDLOC2                           00002002
_IDLOC3                           00002003
_LP_OSC                           00003FFC
_LVP_OFF                          00003F7F
_LVP_ON                           00003FFF
_PWRTE_OFF                        00003FFF
_PWRTE_ON                         00003FF7
_RC_OSC                           00003FFF
_WDTE_OFF                         00003FFB
_WDTE_ON                          00003FFF
_WDT_OFF                          00003FFB
_WDT_ON                           00003FFF
_WRT_ENABLE_OFF                   00003DFF
_WRT_ENABLE_ON                    00003FFF
_WRT_OFF                          00003DFF
_WRT_ON                           00003FFF
_XT_OSC                           00003FFD
__16F877                          00000001
count                             00000077
lcd_d1                            00000071
lcd_d2                            00000072
lcd_tmp                           00000070
long_del                          00000073
m_num_spots                       00000076
spot_base_loc                     00000078
MPASM 5.65                          MAIN.ASM   2-4-2016  14:56:33         PAGE 20






Errors   :     0
Warnings :     1 reported,     0 suppressed
Messages :     9 reported,     0 suppressed

